target datalayout = "e-m:e-p270:32:32-p271:32:32-p272:64:64-i64:64-i128:128-f80:128-n8:16:32:64-S128"
target triple = "x86_64-unknown-linux-gnu"

%"class.QuantLib::KnuthUniformRng" = type { %"class.std::vector", i64, i64, %"class.std::vector" }
%"class.std::vector" = type { %"struct.std::_Vector_base" }
%"struct.std::_Vector_base" = type { %"struct.std::_Vector_base<double, std::allocator<double>>::_Vector_impl" }
%"struct.std::_Vector_base<double, std::allocator<double>>::_Vector_impl" = type { %"struct.std::_Vector_base<double, std::allocator<double>>::_Vector_impl_data" }
%"struct.std::_Vector_base<double, std::allocator<double>>::_Vector_impl_data" = type { ptr, ptr, ptr }

; Function Attrs: inlinehint mustprogress nounwind uwtable
define linkonce_odr noundef double @_ZNK8QuantLib15KnuthUniformRng7mod_sumEdd(ptr noundef nonnull align 8 dereferenceable(64) %this, double noundef %x, double noundef %y) #5 comdat align 2 {
entry:
  %this.addr = alloca ptr, align 8
  %x.addr = alloca double, align 8
  %y.addr = alloca double, align 8
  store ptr %this, ptr %this.addr, align 8, !tbaa !3
  store double %x, ptr %x.addr, align 8, !tbaa !18
  store double %y, ptr %y.addr, align 8, !tbaa !18
  %0 = load double, ptr %x.addr, align 8, !tbaa !18
  %1 = load double, ptr %y.addr, align 8, !tbaa !18
  %add = fadd double %0, %1
  %2 = load double, ptr %x.addr, align 8, !tbaa !18
  %3 = load double, ptr %y.addr, align 8, !tbaa !18
  %add2 = fadd double %2, %3
  %conv = fptosi double %add2 to i32
  %conv3 = sitofp i32 %conv to double
  %sub = fsub double %add, %conv3
  ret double %sub
}

; Function Attrs: mustprogress nounwind uwtable
define linkonce_odr noundef nonnull align 8 dereferenceable(8) ptr @_ZNSt6vectorIdSaIdEEixEm(ptr noundef nonnull align 8 dereferenceable(24) %this, i64 noundef %__n) #2 comdat align 2 {
entry:
  %this.addr = alloca ptr, align 8
  %__n.addr = alloca i64, align 8
  store ptr %this, ptr %this.addr, align 8, !tbaa !3
  store i64 %__n, ptr %__n.addr, align 8, !tbaa !7
  %this1 = load ptr, ptr %this.addr, align 8
  %_M_impl = getelementptr inbounds nuw %"struct.std::_Vector_base", ptr %this1, i32 0, i32 0
  %_M_start = getelementptr inbounds nuw %"struct.std::_Vector_base<double, std::allocator<double>>::_Vector_impl_data", ptr %_M_impl, i32 0, i32 0
  %0 = load ptr, ptr %_M_start, align 8, !tbaa !17
  %1 = load i64, ptr %__n.addr, align 8, !tbaa !7
  %add.ptr = getelementptr inbounds nuw double, ptr %0, i64 %1
  ret ptr %add.ptr
}

; Function Attrs: mustprogress uwtable
define void @_ZNK8QuantLib15KnuthUniformRng10ranf_arrayERSt6vectorIdSaIdEEi(ptr noundef nonnull align 8 dereferenceable(64) %this, ptr noundef nonnull align 8 dereferenceable(24) %aa, i32 noundef %n) #0 align 2 {
entry:
  %this.addr = alloca ptr, align 8
  %aa.addr = alloca ptr, align 8
  %n.addr = alloca i32, align 4
  %i = alloca i32, align 4
  %j = alloca i32, align 4
  store ptr %this, ptr %this.addr, align 8, !tbaa !3
  store ptr %aa, ptr %aa.addr, align 8, !tbaa !3
  store i32 %n, ptr %n.addr, align 4, !tbaa !20
  %this1 = load ptr, ptr %this.addr, align 8
  call void @llvm.lifetime.start.p0(i64 4, ptr %i) #12
  call void @llvm.lifetime.start.p0(i64 4, ptr %j) #12
  store i32 0, ptr %j, align 4, !tbaa !20
  br label %for.cond

for.cond:                                         ; preds = %for.inc, %entry
  %0 = load i32, ptr %j, align 4, !tbaa !20
  %cmp = icmp slt i32 %0, 100
  br i1 %cmp, label %for.body, label %for.end

for.body:                                         ; preds = %for.cond
  %ran_u = getelementptr inbounds nuw %"class.QuantLib::KnuthUniformRng", ptr %this1, i32 0, i32 3
  %1 = load i32, ptr %j, align 4, !tbaa !20
  %conv = sext i32 %1 to i64
  %call = call noundef nonnull align 8 dereferenceable(8) ptr @_ZNSt6vectorIdSaIdEEixEm(ptr noundef nonnull align 8 dereferenceable(24) %ran_u, i64 noundef %conv) #12
  %2 = load double, ptr %call, align 8, !tbaa !18
  %3 = load ptr, ptr %aa.addr, align 8, !tbaa !3
  %4 = load i32, ptr %j, align 4, !tbaa !20
  %conv2 = sext i32 %4 to i64
  %call3 = call noundef nonnull align 8 dereferenceable(8) ptr @_ZNSt6vectorIdSaIdEEixEm(ptr noundef nonnull align 8 dereferenceable(24) %3, i64 noundef %conv2) #12
  store double %2, ptr %call3, align 8, !tbaa !18
  br label %for.inc

for.inc:                                          ; preds = %for.body
  %5 = load i32, ptr %j, align 4, !tbaa !20
  %inc = add nsw i32 %5, 1
  store i32 %inc, ptr %j, align 4, !tbaa !20
  br label %for.cond, !llvm.loop !33

for.end:                                          ; preds = %for.cond
  br label %for.cond4

for.cond4:                                        ; preds = %for.inc15, %for.end
  %6 = load i32, ptr %j, align 4, !tbaa !20
  %7 = load i32, ptr %n.addr, align 4, !tbaa !20
  %cmp5 = icmp slt i32 %6, %7
  br i1 %cmp5, label %for.body6, label %for.end17

for.body6:                                        ; preds = %for.cond4
  %8 = load ptr, ptr %aa.addr, align 8, !tbaa !3
  %9 = load i32, ptr %j, align 4, !tbaa !20
  %sub = sub nsw i32 %9, 100
  %conv7 = sext i32 %sub to i64
  %call8 = call noundef nonnull align 8 dereferenceable(8) ptr @_ZNSt6vectorIdSaIdEEixEm(ptr noundef nonnull align 8 dereferenceable(24) %8, i64 noundef %conv7) #12
  %10 = load double, ptr %call8, align 8, !tbaa !18
  %11 = load ptr, ptr %aa.addr, align 8, !tbaa !3
  %12 = load i32, ptr %j, align 4, !tbaa !20
  %sub9 = sub nsw i32 %12, 37
  %conv10 = sext i32 %sub9 to i64
  %call11 = call noundef nonnull align 8 dereferenceable(8) ptr @_ZNSt6vectorIdSaIdEEixEm(ptr noundef nonnull align 8 dereferenceable(24) %11, i64 noundef %conv10) #12
  %13 = load double, ptr %call11, align 8, !tbaa !18
  %call12 = call noundef double @_ZNK8QuantLib15KnuthUniformRng7mod_sumEdd(ptr noundef nonnull align 8 dereferenceable(64) %this1, double noundef %10, double noundef %13)
  %14 = load ptr, ptr %aa.addr, align 8, !tbaa !3
  %15 = load i32, ptr %j, align 4, !tbaa !20
  %conv13 = sext i32 %15 to i64
  %call14 = call noundef nonnull align 8 dereferenceable(8) ptr @_ZNSt6vectorIdSaIdEEixEm(ptr noundef nonnull align 8 dereferenceable(24) %14, i64 noundef %conv13) #12
  store double %call12, ptr %call14, align 8, !tbaa !18
  br label %for.inc15

for.inc15:                                        ; preds = %for.body6
  %16 = load i32, ptr %j, align 4, !tbaa !20
  %inc16 = add nsw i32 %16, 1
  store i32 %inc16, ptr %j, align 4, !tbaa !20
  br label %for.cond4, !llvm.loop !34

for.end17:                                        ; preds = %for.cond4
  store i32 0, ptr %i, align 4, !tbaa !20
  br label %for.cond18

for.cond18:                                       ; preds = %for.inc31, %for.end17
  %17 = load i32, ptr %i, align 4, !tbaa !20
  %cmp19 = icmp slt i32 %17, 37
  br i1 %cmp19, label %for.body20, label %for.end34

for.body20:                                       ; preds = %for.cond18
  %18 = load ptr, ptr %aa.addr, align 8, !tbaa !3
  %19 = load i32, ptr %j, align 4, !tbaa !20
  %sub21 = sub nsw i32 %19, 100
  %conv22 = sext i32 %sub21 to i64
  %call23 = call noundef nonnull align 8 dereferenceable(8) ptr @_ZNSt6vectorIdSaIdEEixEm(ptr noundef nonnull align 8 dereferenceable(24) %18, i64 noundef %conv22) #12
  %20 = load double, ptr %call23, align 8, !tbaa !18
  %21 = load ptr, ptr %aa.addr, align 8, !tbaa !3
  %22 = load i32, ptr %j, align 4, !tbaa !20
  %sub24 = sub nsw i32 %22, 37
  %conv25 = sext i32 %sub24 to i64
  %call26 = call noundef nonnull align 8 dereferenceable(8) ptr @_ZNSt6vectorIdSaIdEEixEm(ptr noundef nonnull align 8 dereferenceable(24) %21, i64 noundef %conv25) #12
  %23 = load double, ptr %call26, align 8, !tbaa !18
  %call27 = call noundef double @_ZNK8QuantLib15KnuthUniformRng7mod_sumEdd(ptr noundef nonnull align 8 dereferenceable(64) %this1, double noundef %20, double noundef %23)
  %ran_u28 = getelementptr inbounds nuw %"class.QuantLib::KnuthUniformRng", ptr %this1, i32 0, i32 3
  %24 = load i32, ptr %i, align 4, !tbaa !20
  %conv29 = sext i32 %24 to i64
  %call30 = call noundef nonnull align 8 dereferenceable(8) ptr @_ZNSt6vectorIdSaIdEEixEm(ptr noundef nonnull align 8 dereferenceable(24) %ran_u28, i64 noundef %conv29) #12
  store double %call27, ptr %call30, align 8, !tbaa !18
  br label %for.inc31

for.inc31:                                        ; preds = %for.body20
  %25 = load i32, ptr %i, align 4, !tbaa !20
  %inc32 = add nsw i32 %25, 1
  store i32 %inc32, ptr %i, align 4, !tbaa !20
  %26 = load i32, ptr %j, align 4, !tbaa !20
  %inc33 = add nsw i32 %26, 1
  store i32 %inc33, ptr %j, align 4, !tbaa !20
  br label %for.cond18, !llvm.loop !35

for.end34:                                        ; preds = %for.cond18
  br label %for.cond35

for.cond35:                                       ; preds = %for.inc49, %for.end34
  %27 = load i32, ptr %i, align 4, !tbaa !20
  %cmp36 = icmp slt i32 %27, 100
  br i1 %cmp36, label %for.body37, label %for.end52

for.body37:                                       ; preds = %for.cond35
  %28 = load ptr, ptr %aa.addr, align 8, !tbaa !3
  %29 = load i32, ptr %j, align 4, !tbaa !20
  %sub38 = sub nsw i32 %29, 100
  %conv39 = sext i32 %sub38 to i64
  %call40 = call noundef nonnull align 8 dereferenceable(8) ptr @_ZNSt6vectorIdSaIdEEixEm(ptr noundef nonnull align 8 dereferenceable(24) %28, i64 noundef %conv39) #12
  %30 = load double, ptr %call40, align 8, !tbaa !18
  %ran_u41 = getelementptr inbounds nuw %"class.QuantLib::KnuthUniformRng", ptr %this1, i32 0, i32 3
  %31 = load i32, ptr %i, align 4, !tbaa !20
  %sub42 = sub nsw i32 %31, 37
  %conv43 = sext i32 %sub42 to i64
  %call44 = call noundef nonnull align 8 dereferenceable(8) ptr @_ZNSt6vectorIdSaIdEEixEm(ptr noundef nonnull align 8 dereferenceable(24) %ran_u41, i64 noundef %conv43) #12
  %32 = load double, ptr %call44, align 8, !tbaa !18
  %call45 = call noundef double @_ZNK8QuantLib15KnuthUniformRng7mod_sumEdd(ptr noundef nonnull align 8 dereferenceable(64) %this1, double noundef %30, double noundef %32)
  %ran_u46 = getelementptr inbounds nuw %"class.QuantLib::KnuthUniformRng", ptr %this1, i32 0, i32 3
  %33 = load i32, ptr %i, align 4, !tbaa !20
  %conv47 = sext i32 %33 to i64
  %call48 = call noundef nonnull align 8 dereferenceable(8) ptr @_ZNSt6vectorIdSaIdEEixEm(ptr noundef nonnull align 8 dereferenceable(24) %ran_u46, i64 noundef %conv47) #12
  store double %call45, ptr %call48, align 8, !tbaa !18
  br label %for.inc49

for.inc49:                                        ; preds = %for.body37
  %34 = load i32, ptr %i, align 4, !tbaa !20
  %inc50 = add nsw i32 %34, 1
  store i32 %inc50, ptr %i, align 4, !tbaa !20
  %35 = load i32, ptr %j, align 4, !tbaa !20
  %inc51 = add nsw i32 %35, 1
  store i32 %inc51, ptr %j, align 4, !tbaa !20
  br label %for.cond35, !llvm.loop !36

for.end52:                                        ; preds = %for.cond35
  call void @llvm.lifetime.end.p0(i64 4, ptr %j) #12
  call void @llvm.lifetime.end.p0(i64 4, ptr %i) #12
  ret void
}