; Function Attrs: mustprogress nofree norecurse nosync nounwind memory(readwrite, inaccessiblemem: none) uwtable
define void @_ZNK8QuantLib15KnuthUniformRng10ranf_arrayERSt6vectorIdSaIdEEi(ptr nocapture noundef nonnull readonly align 8 dereferenceable(64) %this, ptr nocapture noundef nonnull readonly align 8 dereferenceable(24) %aa, i32 noundef %n) local_unnamed_addr #2 align 2 {
entry:
  %ran_u = getelementptr inbounds nuw i8, ptr %this, i64 40
  %0 = load ptr, ptr %ran_u, align 8, !tbaa !3
  %1 = load ptr, ptr %aa, align 8, !tbaa !3
  br label %for.body

for.cond4.preheader:                              ; preds = %for.body
  %cmp545 = icmp sgt i32 %n, 100
  br i1 %cmp545, label %for.body6.lr.ph, label %for.cond18.preheader

for.body6.lr.ph:                                  ; preds = %for.cond4.preheader
  %invariant.gep = getelementptr i8, ptr %1, i64 -800
  %invariant.gep47 = getelementptr i8, ptr %1, i64 -296
  %wide.trip.count = zext nneg i32 %n to i64
  br label %for.body6

for.body:                                         ; preds = %entry, %for.body
  %indvars.iv = phi i64 [ 0, %entry ], [ %indvars.iv.next, %for.body ]
  %add.ptr.i = getelementptr inbounds nuw double, ptr %0, i64 %indvars.iv
  %2 = load double, ptr %add.ptr.i, align 8, !tbaa !18
  %add.ptr.i26 = getelementptr inbounds nuw double, ptr %1, i64 %indvars.iv
  store double %2, ptr %add.ptr.i26, align 8, !tbaa !18
  %indvars.iv.next = add nuw nsw i64 %indvars.iv, 1
  %exitcond.not = icmp eq i64 %indvars.iv.next, 100
  br i1 %exitcond.not, label %for.cond4.preheader, label %for.body, !llvm.loop !28

for.cond18.preheader.loopexit:                    ; preds = %for.body6
  %3 = zext nneg i32 %n to i64
  br label %for.cond18.preheader

for.cond18.preheader:                             ; preds = %for.cond4.preheader, %for.cond18.preheader.loopexit
  %j.1.lcssa = phi i64 [ %3, %for.cond18.preheader.loopexit ], [ 100, %for.cond4.preheader ]
  %invariant.gep49 = getelementptr i8, ptr %1, i64 -800
  %invariant.gep51 = getelementptr i8, ptr %1, i64 -296
  br label %for.body20

for.body6:                                        ; preds = %for.body6.lr.ph, %for.body6
  %indvars.iv63 = phi i64 [ 100, %for.body6.lr.ph ], [ %indvars.iv.next64, %for.body6 ]
  %gep = getelementptr double, ptr %invariant.gep, i64 %indvars.iv63
  %4 = load double, ptr %gep, align 8, !tbaa !18
  %gep48 = getelementptr double, ptr %invariant.gep47, i64 %indvars.iv63
  %5 = load double, ptr %gep48, align 8, !tbaa !18
  %add.i = fadd double %4, %5
  %conv.i = fptosi double %add.i to i32
  %conv3.i = sitofp i32 %conv.i to double
  %sub.i = fsub double %add.i, %conv3.i
  %add.ptr.i29 = getelementptr inbounds nuw double, ptr %1, i64 %indvars.iv63
  store double %sub.i, ptr %add.ptr.i29, align 8, !tbaa !18
  %indvars.iv.next64 = add nuw nsw i64 %indvars.iv63, 1
  %exitcond66.not = icmp eq i64 %indvars.iv.next64, %wide.trip.count
  br i1 %exitcond66.not, label %for.cond18.preheader.loopexit, label %for.body6, !llvm.loop !29

for.body37.lr.ph:                                 ; preds = %for.body20
  %invariant.gep60 = getelementptr i8, ptr %0, i64 -296
  br label %for.body37

for.body20:                                       ; preds = %for.cond18.preheader, %for.body20
  %indvars.iv75.in = phi i64 [ %j.1.lcssa, %for.cond18.preheader ], [ %indvars.iv75, %for.body20 ]
  %indvars.iv69 = phi i64 [ 0, %for.cond18.preheader ], [ %indvars.iv.next70, %for.body20 ]
  %indvars.iv67 = phi i64 [ %j.1.lcssa, %for.cond18.preheader ], [ %indvars.iv.next68, %for.body20 ]
  %indvars.iv75 = add nuw nsw i64 %indvars.iv75.in, 1
  %gep50 = getelementptr double, ptr %invariant.gep49, i64 %indvars.iv67
  %6 = load double, ptr %gep50, align 8, !tbaa !18
  %gep52 = getelementptr double, ptr %invariant.gep51, i64 %indvars.iv67
  %7 = load double, ptr %gep52, align 8, !tbaa !18
  %add.i32 = fadd double %6, %7
  %conv.i33 = fptosi double %add.i32 to i32
  %conv3.i34 = sitofp i32 %conv.i33 to double
  %sub.i35 = fsub double %add.i32, %conv3.i34
  %add.ptr.i36 = getelementptr inbounds nuw double, ptr %0, i64 %indvars.iv69
  store double %sub.i35, ptr %add.ptr.i36, align 8, !tbaa !18
  %indvars.iv.next70 = add nuw nsw i64 %indvars.iv69, 1
  %indvars.iv.next68 = add nuw nsw i64 %indvars.iv67, 1
  %exitcond74.not = icmp eq i64 %indvars.iv.next70, 37
  br i1 %exitcond74.not, label %for.body37.lr.ph, label %for.body20, !llvm.loop !30

for.body37:                                       ; preds = %for.body37.lr.ph, %for.body37
  %indvars.iv79 = phi i64 [ 37, %for.body37.lr.ph ], [ %indvars.iv.next80, %for.body37 ]
  %indvars.iv77 = phi i64 [ %indvars.iv75, %for.body37.lr.ph ], [ %indvars.iv.next78, %for.body37 ]
  %gep59 = getelementptr double, ptr %invariant.gep49, i64 %indvars.iv77
  %8 = load double, ptr %gep59, align 8, !tbaa !18
  %gep61 = getelementptr double, ptr %invariant.gep60, i64 %indvars.iv79
  %9 = load double, ptr %gep61, align 8, !tbaa !18
  %add.i39 = fadd double %8, %9
  %conv.i40 = fptosi double %add.i39 to i32
  %conv3.i41 = sitofp i32 %conv.i40 to double
  %sub.i42 = fsub double %add.i39, %conv3.i41
  %add.ptr.i43 = getelementptr inbounds nuw double, ptr %0, i64 %indvars.iv79
  store double %sub.i42, ptr %add.ptr.i43, align 8, !tbaa !18
  %indvars.iv.next80 = add nuw nsw i64 %indvars.iv79, 1
  %indvars.iv.next78 = add nuw nsw i64 %indvars.iv77, 1
  %exitcond84.not = icmp eq i64 %indvars.iv.next80, 100
  br i1 %exitcond84.not, label %for.end52, label %for.body37, !llvm.loop !31

for.end52:                                        ; preds = %for.body37
  ret void
}